target datalayout = "e-m:e-p270:32:32-p271:32:32-p272:64:64-i64:64-i128:128-f80:128-n8:16:32:64-S128"
target triple = "x86_64-unknown-linux-gnu"

%"class.std::__shared_count" = type { ptr }
%"class.proxygen::PersistentQuicPskCache" = type { %"class.quic::QuicPskCache", %"class.wangle::FilePersistentCache", i64, %"class.std::unique_ptr" }
%"class.quic::QuicPskCache" = type { ptr }
%"class.wangle::FilePersistentCache" = type { %"class.wangle::PersistentCache", %"class.std::shared_ptr.4" }
%"class.wangle::PersistentCache" = type { ptr }
%"class.std::shared_ptr.4" = type { %"class.std::__shared_ptr.5" }
%"class.std::__shared_ptr.5" = type { ptr, %"class.std::__shared_count" }
%"class.std::unique_ptr" = type { %"struct.std::__uniq_ptr_data" }
%"struct.std::__uniq_ptr_data" = type { %"class.std::__uniq_ptr_impl" }
%"class.std::__uniq_ptr_impl" = type { %"class.std::tuple" }
%"class.std::tuple" = type { %"struct.std::_Tuple_impl" }
%"struct.std::_Tuple_impl" = type { %"struct.std::_Head_base.3" }
%"struct.std::_Head_base.3" = type { ptr }

; Function Attrs: mustprogress nounwind uwtable
define linkonce_odr noundef ptr @_ZNKSt12__shared_ptrIN6wangle18LRUPersistentCacheINSt7__cxx1112basic_stringIcSt11char_traitsIcESaIcEEEN8proxygen23PersistentQuicCachedPskESt5mutexEELN9__gnu_cxx12_Lock_policyE2EE3getEv(ptr noundef nonnull align 8 dereferenceable(16) %this) #2 comdat align 2 {
entry:
  %this.addr = alloca ptr, align 8
  store ptr %this, ptr %this.addr, align 8
  %this1 = load ptr, ptr %this.addr, align 8
  %_M_ptr = getelementptr inbounds %"class.std::__shared_ptr.5", ptr %this1, i32 0, i32 0
  %0 = load ptr, ptr %_M_ptr, align 8
  ret ptr %0
}

; Function Attrs: mustprogress nounwind uwtable
define linkonce_odr noundef ptr @_ZNKSt19__shared_ptr_accessIN6wangle18LRUPersistentCacheINSt7__cxx1112basic_stringIcSt11char_traitsIcESaIcEEEN8proxygen23PersistentQuicCachedPskESt5mutexEELN9__gnu_cxx12_Lock_policyE2ELb0ELb0EE6_M_getEv(ptr noundef nonnull align 1 dereferenceable(1) %this) #2 comdat align 2 {
entry:
  %this.addr = alloca ptr, align 8
  store ptr %this, ptr %this.addr, align 8
  %this1 = load ptr, ptr %this.addr, align 8
  %call = call noundef ptr @_ZNKSt12__shared_ptrIN6wangle18LRUPersistentCacheINSt7__cxx1112basic_stringIcSt11char_traitsIcESaIcEEEN8proxygen23PersistentQuicCachedPskESt5mutexEELN9__gnu_cxx12_Lock_policyE2EE3getEv(ptr noundef nonnull align 8 dereferenceable(16) %this1) #26
  ret ptr %call
}

; Function Attrs: mustprogress nounwind uwtable
define linkonce_odr noundef ptr @_ZNKSt19__shared_ptr_accessIN6wangle18LRUPersistentCacheINSt7__cxx1112basic_stringIcSt11char_traitsIcESaIcEEEN8proxygen23PersistentQuicCachedPskESt5mutexEELN9__gnu_cxx12_Lock_policyE2ELb0ELb0EEptEv(ptr noundef nonnull align 1 dereferenceable(1) %this) #2 comdat align 2 {
entry:
  %this.addr = alloca ptr, align 8
  store ptr %this, ptr %this.addr, align 8
  %this1 = load ptr, ptr %this.addr, align 8
  %call = call noundef ptr @_ZNKSt19__shared_ptr_accessIN6wangle18LRUPersistentCacheINSt7__cxx1112basic_stringIcSt11char_traitsIcESaIcEEEN8proxygen23PersistentQuicCachedPskESt5mutexEELN9__gnu_cxx12_Lock_policyE2ELb0ELb0EE6_M_getEv(ptr noundef nonnull align 1 dereferenceable(1) %this1) #26
  ret ptr %call
}

; Function Attrs: mustprogress uwtable
define linkonce_odr noundef zeroext i1 @_ZN6wangle19FilePersistentCacheINSt7__cxx1112basic_stringIcSt11char_traitsIcESaIcEEEN8proxygen23PersistentQuicCachedPskESt5mutexE6removeERKS6_(ptr noundef nonnull align 8 dereferenceable(24) %this, ptr noundef nonnull align 8 dereferenceable(32) %key) unnamed_addr #1 comdat align 2 {
entry:
  %this.addr = alloca ptr, align 8
  %key.addr = alloca ptr, align 8
  store ptr %this, ptr %this.addr, align 8
  store ptr %key, ptr %key.addr, align 8
  %this1 = load ptr, ptr %this.addr, align 8
  %cache_ = getelementptr inbounds %"class.wangle::FilePersistentCache", ptr %this1, i32 0, i32 1
  %call = call noundef ptr @_ZNKSt19__shared_ptr_accessIN6wangle18LRUPersistentCacheINSt7__cxx1112basic_stringIcSt11char_traitsIcESaIcEEEN8proxygen23PersistentQuicCachedPskESt5mutexEELN9__gnu_cxx12_Lock_policyE2ELb0ELb0EEptEv(ptr noundef nonnull align 1 dereferenceable(1) %cache_) #26
  %0 = load ptr, ptr %key.addr, align 8
  %vtable = load ptr, ptr %call, align 8
  %vfn = getelementptr inbounds ptr, ptr %vtable, i64 4
  %1 = load ptr, ptr %vfn, align 8
  %call2 = call noundef zeroext i1 %1(ptr noundef nonnull align 8 dereferenceable(397) %call, ptr noundef nonnull align 8 dereferenceable(32) %0)
  ret i1 %call2
}

; Function Attrs: mustprogress uwtable
define void @_ZN8proxygen22PersistentQuicPskCache9removePskERKNSt7__cxx1112basic_stringIcSt11char_traitsIcESaIcEEE(ptr noundef nonnull align 8 dereferenceable(48) %this, ptr noundef nonnull align 8 dereferenceable(32) %identity) unnamed_addr #1 align 2 {
entry:
  %this.addr = alloca ptr, align 8
  %identity.addr = alloca ptr, align 8
  store ptr %this, ptr %this.addr, align 8
  store ptr %identity, ptr %identity.addr, align 8
  %this1 = load ptr, ptr %this.addr, align 8
  %cache_ = getelementptr inbounds %"class.proxygen::PersistentQuicPskCache", ptr %this1, i32 0, i32 1
  %0 = load ptr, ptr %identity.addr, align 8
  %call = call noundef zeroext i1 @_ZN6wangle19FilePersistentCacheINSt7__cxx1112basic_stringIcSt11char_traitsIcESaIcEEEN8proxygen23PersistentQuicCachedPskESt5mutexE6removeERKS6_(ptr noundef nonnull align 8 dereferenceable(24) %cache_, ptr noundef nonnull align 8 dereferenceable(32) %0)
  ret void
}